; ModuleID = '15/2166.c'
source_filename = "15/2166.c"
target datalayout = "e-m:e-p270:32:32-p271:32:32-p272:64:64-i64:64-f80:128-n8:16:32:64-S128"
target triple = "x86_64-pc-linux-gnu"

@.str = private unnamed_addr constant [4 x i8] c"%d\0A\00", align 1
@.str.1 = private unnamed_addr constant [3 x i8] c"%d\00", align 1

; Function Attrs: noinline nounwind uwtable
define dso_local i32 @main() #0 {
  %1 = alloca i32, align 4
  %2 = alloca i32, align 4
  %3 = alloca [1000 x [1000 x i32]], align 16
  %4 = alloca i32, align 4
  %5 = alloca i32, align 4
  %6 = alloca i32, align 4
  %7 = alloca i32, align 4
  %8 = alloca i32, align 4
  %9 = alloca i32, align 4
  %10 = alloca i32, align 4
  %11 = alloca i32, align 4
  %12 = alloca i32, align 4
  store i32 0, i32* %1, align 4
  store i32 0, i32* %6, align 4
  store i32 0, i32* %12, align 4
  %13 = call i32 (i8*, ...) @__isoc99_scanf(i8* getelementptr inbounds ([4 x i8], [4 x i8]* @.str, i64 0, i64 0), i32* %2)
  store i32 0, i32* %4, align 4
  br label %14

14:                                               ; preds = %35, %0
  %15 = load i32, i32* %4, align 4
  %16 = load i32, i32* %2, align 4
  %17 = icmp slt i32 %15, %16
  br i1 %17, label %18, label %38

18:                                               ; preds = %14
  store i32 0, i32* %5, align 4
  br label %19

19:                                               ; preds = %31, %18
  %20 = load i32, i32* %5, align 4
  %21 = load i32, i32* %2, align 4
  %22 = icmp slt i32 %20, %21
  br i1 %22, label %23, label %34

23:                                               ; preds = %19
  %24 = load i32, i32* %4, align 4
  %25 = sext i32 %24 to i64
  %26 = getelementptr inbounds [1000 x [1000 x i32]], [1000 x [1000 x i32]]* %3, i64 0, i64 %25
  %27 = load i32, i32* %5, align 4
  %28 = sext i32 %27 to i64
  %29 = getelementptr inbounds [1000 x i32], [1000 x i32]* %26, i64 0, i64 %28
  %30 = call i32 (i8*, ...) @__isoc99_scanf(i8* getelementptr inbounds ([3 x i8], [3 x i8]* @.str.1, i64 0, i64 0), i32* %29)
  br label %31

31:                                               ; preds = %23
  %32 = load i32, i32* %5, align 4
  %33 = add nsw i32 %32, 1
  store i32 %33, i32* %5, align 4
  br label %19

34:                                               ; preds = %19
  br label %35

35:                                               ; preds = %34
  %36 = load i32, i32* %4, align 4
  %37 = add nsw i32 %36, 1
  store i32 %37, i32* %4, align 4
  br label %14

38:                                               ; preds = %14
  store i32 0, i32* %4, align 4
  br label %39

39:                                               ; preds = %84, %38
  %40 = load i32, i32* %4, align 4
  %41 = load i32, i32* %2, align 4
  %42 = icmp slt i32 %40, %41
  br i1 %42, label %43, label %87

43:                                               ; preds = %39
  store i32 0, i32* %5, align 4
  br label %44

44:                                               ; preds = %80, %43
  %45 = load i32, i32* %5, align 4
  %46 = load i32, i32* %2, align 4
  %47 = icmp slt i32 %45, %46
  br i1 %47, label %48, label %83

48:                                               ; preds = %44
  %49 = load i32, i32* %4, align 4
  %50 = sext i32 %49 to i64
  %51 = getelementptr inbounds [1000 x [1000 x i32]], [1000 x [1000 x i32]]* %3, i64 0, i64 %50
  %52 = load i32, i32* %5, align 4
  %53 = sext i32 %52 to i64
  %54 = getelementptr inbounds [1000 x i32], [1000 x i32]* %51, i64 0, i64 %53
  %55 = load i32, i32* %54, align 4
  %56 = icmp eq i32 %55, 0
  br i1 %56, label %57, label %65

57:                                               ; preds = %48
  %58 = load i32, i32* %12, align 4
  %59 = icmp eq i32 %58, 0
  br i1 %59, label %60, label %65

60:                                               ; preds = %57
  %61 = load i32, i32* %4, align 4
  %62 = add nsw i32 %61, 1
  store i32 %62, i32* %8, align 4
  %63 = load i32, i32* %5, align 4
  %64 = add nsw i32 %63, 1
  store i32 %64, i32* %10, align 4
  store i32 1, i32* %12, align 4
  br label %65

65:                                               ; preds = %60, %57, %48
  %66 = load i32, i32* %4, align 4
  %67 = sext i32 %66 to i64
  %68 = getelementptr inbounds [1000 x [1000 x i32]], [1000 x [1000 x i32]]* %3, i64 0, i64 %67
  %69 = load i32, i32* %5, align 4
  %70 = sext i32 %69 to i64
  %71 = getelementptr inbounds [1000 x i32], [1000 x i32]* %68, i64 0, i64 %70
  %72 = load i32, i32* %71, align 4
  %73 = icmp eq i32 %72, 0
  br i1 %73, label %74, label %79

74:                                               ; preds = %65
  %75 = load i32, i32* %4, align 4
  %76 = sub nsw i32 %75, 1
  store i32 %76, i32* %9, align 4
  %77 = load i32, i32* %5, align 4
  %78 = sub nsw i32 %77, 1
  store i32 %78, i32* %11, align 4
  br label %79

79:                                               ; preds = %74, %65
  br label %80

80:                                               ; preds = %79
  %81 = load i32, i32* %5, align 4
  %82 = add nsw i32 %81, 1
  store i32 %82, i32* %5, align 4
  br label %44

83:                                               ; preds = %44
  br label %84

84:                                               ; preds = %83
  %85 = load i32, i32* %4, align 4
  %86 = add nsw i32 %85, 1
  store i32 %86, i32* %4, align 4
  br label %39

87:                                               ; preds = %39
  %88 = load i32, i32* %9, align 4
  %89 = load i32, i32* %8, align 4
  %90 = sub nsw i32 %88, %89
  %91 = add nsw i32 %90, 1
  %92 = load i32, i32* %11, align 4
  %93 = load i32, i32* %10, align 4
  %94 = sub nsw i32 %92, %93
  %95 = add nsw i32 %94, 1
  %96 = mul nsw i32 %91, %95
  %97 = call i32 (i8*, ...) @printf(i8* getelementptr inbounds ([4 x i8], [4 x i8]* @.str, i64 0, i64 0), i32 %96)
  ret i32 0
}

declare dso_local i32 @__isoc99_scanf(i8*, ...) #1

declare dso_local i32 @printf(i8*, ...) #1


!llvm.module.flags = !{!0}
!llvm.ident = !{!1}

!0 = !{i32 1, !"wchar_size", i32 4}
!1 = !{!"clang version 10.0.0-4ubuntu1 "}
